target datalayout = "e-m:e-p270:32:32-p271:32:32-p272:64:64-i64:64-i128:128-f80:128-n8:16:32:64-S128"
target triple = "x86_64-pc-linux-gnu"

; Function Attrs: mustprogress nounwind uwtable
define noundef zeroext i1 @_Z10IsDriveDivi(i32 noundef %0) #2 {
  %2 = alloca i32, align 4
  store i32 %0, ptr %2, align 4
  ret i1 false
}

; Function Attrs: mustprogress nounwind uwtable
define void @_Z11AddEndSlashPwm(ptr noundef %0, i64 noundef %1) #2 {
  %3 = alloca ptr, align 8
  %4 = alloca i64, align 8
  %5 = alloca i64, align 8
  store ptr %0, ptr %3, align 8
  store i64 %1, ptr %4, align 8
  %6 = load ptr, ptr %3, align 8
  %7 = call i64 @wcslen(ptr noundef %6) #6
  store i64 %7, ptr %5, align 8
  %8 = load i64, ptr %5, align 8
  %9 = icmp ugt i64 %8, 0
  br i1 %9, label %10, label %30

10:                                               ; preds = %2
  %11 = load ptr, ptr %3, align 8
  %12 = load i64, ptr %5, align 8
  %13 = sub i64 %12, 1
  %14 = getelementptr inbounds i32, ptr %11, i64 %13
  %15 = load i32, ptr %14, align 4
  %16 = icmp ne i32 %15, 47
  br i1 %16, label %17, label %30

17:                                               ; preds = %10
  %18 = load i64, ptr %5, align 8
  %19 = add i64 %18, 1
  %20 = load i64, ptr %4, align 8
  %21 = icmp ult i64 %19, %20
  br i1 %21, label %22, label %30

22:                                               ; preds = %17
  %23 = load ptr, ptr %3, align 8
  %24 = load i64, ptr %5, align 8
  %25 = getelementptr inbounds i32, ptr %23, i64 %24
  store i32 47, ptr %25, align 4
  %26 = load ptr, ptr %3, align 8
  %27 = load i64, ptr %5, align 8
  %28 = add i64 %27, 1
  %29 = getelementptr inbounds i32, ptr %26, i64 %28
  store i32 0, ptr %29, align 4
  br label %30

30:                                               ; preds = %22, %17, %10, %2
  ret void
}

; Function Attrs: mustprogress uwtable
define noundef zeroext i1 @_Z13IsDriveLetterPKw(ptr noundef %0) #0 {
  %2 = alloca ptr, align 8
  %3 = alloca i32, align 4
  store ptr %0, ptr %2, align 8
  %4 = load ptr, ptr %2, align 8
  %5 = getelementptr inbounds i32, ptr %4, i64 0
  %6 = load i32, ptr %5, align 4
  %7 = call noundef signext i32 @_Z9etoupperww(i32 noundef signext %6)
  store i32 %7, ptr %3, align 4
  %8 = load i32, ptr %3, align 4
  %9 = icmp sge i32 %8, 65
  br i1 %9, label %10, label %18

10:                                               ; preds = %1
  %11 = load i32, ptr %3, align 4
  %12 = icmp sle i32 %11, 90
  br i1 %12, label %13, label %18

13:                                               ; preds = %10
  %14 = load ptr, ptr %2, align 8
  %15 = getelementptr inbounds i32, ptr %14, i64 1
  %16 = load i32, ptr %15, align 4
  %17 = call noundef zeroext i1 @_Z10IsDriveDivi(i32 noundef %16)
  br label %18

18:                                               ; preds = %13, %10, %1
  %19 = phi i1 [ false, %10 ], [ false, %1 ], [ %17, %13 ]
  ret i1 %19
}

; Function Attrs: mustprogress uwtable
define void @_Z8MakeNamePKwS0_Pwm(ptr noundef %0, ptr noundef %1, ptr noundef %2, i64 noundef %3) #0 {
  %5 = alloca ptr, align 8
  %6 = alloca ptr, align 8
  %7 = alloca ptr, align 8
  %8 = alloca i64, align 8
  %9 = alloca [2048 x i32], align 16
  store ptr %0, ptr %5, align 8
  store ptr %1, ptr %6, align 8
  store ptr %2, ptr %7, align 8
  store i64 %3, ptr %8, align 8
  %10 = getelementptr inbounds [2048 x i32], ptr %9, i64 0, i64 0
  %11 = load ptr, ptr %5, align 8
  call void @_Z8wcsncpyzPwPKwm(ptr noundef %10, ptr noundef %11, i64 noundef 2048)
  %12 = load ptr, ptr %5, align 8
  %13 = call noundef zeroext i1 @_Z13IsDriveLetterPKw(ptr noundef %12)
  br i1 %13, label %14, label %19

14:                                               ; preds = %4
  %15 = load ptr, ptr %5, align 8
  %16 = getelementptr inbounds i32, ptr %15, i64 2
  %17 = load i32, ptr %16, align 4
  %18 = icmp ne i32 %17, 0
  br i1 %18, label %19, label %21

19:                                               ; preds = %14, %4
  %20 = getelementptr inbounds [2048 x i32], ptr %9, i64 0, i64 0
  call void @_Z11AddEndSlashPwm(ptr noundef %20, i64 noundef 2048)
  br label %21

21:                                               ; preds = %19, %14
  %22 = getelementptr inbounds [2048 x i32], ptr %9, i64 0, i64 0
  %23 = load ptr, ptr %6, align 8
  call void @_Z8wcsncatzPwPKwm(ptr noundef %22, ptr noundef %23, i64 noundef 2048)
  %24 = load ptr, ptr %7, align 8
  %25 = getelementptr inbounds [2048 x i32], ptr %9, i64 0, i64 0
  %26 = load i64, ptr %8, align 8
  call void @_Z8wcsncpyzPwPKwm(ptr noundef %24, ptr noundef %25, i64 noundef %26)
  ret void
}