; Function Attrs: mustprogress uwtable
define void @_Z8MakeNamePKwS0_Pwm(ptr noundef %0, ptr noundef %1, ptr noundef %2, i64 noundef %3) local_unnamed_addr #3 {
  %5 = alloca [2048 x i32], align 16
  call void @_Z8wcsncpyzPwPKwm(ptr noundef nonnull %5, ptr noundef %0, i64 noundef 2048)
  %6 = load i32, ptr %0, align 4
  %7 = call noundef signext i32 @_Z9etoupperww(i32 noundef signext %6)
  %8 = call i64 @wcslen(ptr noundef nonnull %5) #18
  %.not.i = icmp eq i64 %8, 0
  br i1 %.not.i, label %_Z11AddEndSlashPwm.exit, label %9

9:                                                ; preds = %4
  %10 = getelementptr i32, ptr %5, i64 %8
  %11 = getelementptr i8, ptr %10, i64 -4
  %12 = load i32, ptr %11, align 4
  %.not10.i = icmp eq i32 %12, 47
  br i1 %.not10.i, label %_Z11AddEndSlashPwm.exit, label %13

13:                                               ; preds = %9
  %14 = add i64 %8, 1
  %15 = icmp ult i64 %14, 2048
  br i1 %15, label %16, label %_Z11AddEndSlashPwm.exit

16:                                               ; preds = %13
  store i32 47, ptr %10, align 4
  %17 = getelementptr inbounds nuw i32, ptr %5, i64 %14
  store i32 0, ptr %17, align 4
  br label %_Z11AddEndSlashPwm.exit

_Z11AddEndSlashPwm.exit:                          ; preds = %4, %9, %13, %16
  call void @_Z8wcsncatzPwPKwm(ptr noundef nonnull %5, ptr noundef %1, i64 noundef 2048)
  call void @_Z8wcsncpyzPwPKwm(ptr noundef %2, ptr noundef nonnull %5, i64 noundef %3)
  ret void
}